; Function Attrs: mustprogress nounwind uwtable
define void @_Z15gmx_pme_destroyP9gmx_pme_t(ptr noundef %0) local_unnamed_addr #11 {
  %.not.i = icmp eq ptr %0, null
  br i1 %.not.i, label %_Z15gmx_pme_destroyP9gmx_pme_tb.exit, label %2

2:                                                ; preds = %1
  tail call void @_ZN9gmx_pme_tD2Ev(ptr noundef nonnull align 8 dereferenceable(976) %0) #7
  tail call void @_ZdlPv(ptr noundef nonnull %0) #27
  br label %_Z15gmx_pme_destroyP9gmx_pme_tb.exit

_Z15gmx_pme_destroyP9gmx_pme_tb.exit:             ; preds = %1, %2
  ret void
}